target datalayout = "e-m:e-p270:32:32-p271:32:32-p272:64:64-i64:64-i128:128-f80:128-n8:16:32:64-S128"
target triple = "x86_64-pc-linux-gnu"

%struct.stat = type { i64, i64, i64, i32, i32, i32, i32, i64, i64, i64, i64, %struct.timespec, %struct.timespec, %struct.timespec, [3 x i64] }
%struct.timespec = type { i64, i64 }

; Function Attrs: nounwind uwtable
define dso_local i32 @file_exists(ptr noundef %0) #0 {
  %2 = alloca ptr, align 8
  %3 = alloca %struct.stat, align 8
  store ptr %0, ptr %2, align 8, !tbaa !13
  call void @llvm.lifetime.start.p0(i64 144, ptr %3) #12
  %4 = load ptr, ptr %2, align 8, !tbaa !13
  %5 = call i32 @lstat64(ptr noundef %4, ptr noundef %3) #12
  %6 = icmp eq i32 %5, 0
  %7 = zext i1 %6 to i32
  call void @llvm.lifetime.end.p0(i64 144, ptr %3) #12
  ret i32 %7
}