; Function Attrs: nofree nounwind uwtable
define dso_local range(i32 0, 2) i32 @file_exists(ptr noundef readonly captures(none) %0) local_unnamed_addr #15 {
  %2 = alloca %struct.stat, align 8
  call void @llvm.lifetime.start.p0(i64 144, ptr nonnull %2) #27
  %3 = call i32 @lstat64(ptr noundef %0, ptr noundef nonnull %2) #27
  %4 = icmp eq i32 %3, 0
  %5 = zext i1 %4 to i32
  call void @llvm.lifetime.end.p0(i64 144, ptr nonnull %2) #27
  ret i32 %5
}